; Function Attrs: nounwind uwtable
define internal fastcc void @save(ptr noundef readonly captures(none) %0, i32 noundef %1) unnamed_addr #0 {
  %3 = getelementptr inbounds nuw i8, ptr %0, i64 72
  %4 = load ptr, ptr %3, align 8, !tbaa !27
  %5 = getelementptr inbounds nuw i8, ptr %4, i64 8
  %6 = load i64, ptr %5, align 8, !tbaa !28
  %7 = add i64 %6, 1
  %8 = getelementptr inbounds nuw i8, ptr %4, i64 16
  %9 = load i64, ptr %8, align 8, !tbaa !31
  %10 = icmp ugt i64 %7, %9
  br i1 %10, label %11, label %._crit_edge

._crit_edge:                                      ; preds = %2
  %.pre = load ptr, ptr %4, align 8, !tbaa !32
  br label %20

11:                                               ; preds = %2
  %12 = icmp ugt i64 %9, 4611686018427387902
  br i1 %12, label %13, label %14

13:                                               ; preds = %11
  tail call fastcc void @lexerror(ptr noundef nonnull %0, ptr noundef nonnull @.str.42, i32 noundef 0) #7
  unreachable

14:                                               ; preds = %11
  %15 = shl nuw nsw i64 %9, 1
  %16 = getelementptr inbounds nuw i8, ptr %0, i64 56
  %17 = load ptr, ptr %16, align 8, !tbaa !14
  %18 = load ptr, ptr %4, align 8, !tbaa !32
  %19 = tail call ptr @luaM_saferealloc_(ptr noundef %17, ptr noundef %18, i64 noundef %9, i64 noundef %15) #6
  store ptr %19, ptr %4, align 8, !tbaa !32
  store i64 %15, ptr %8, align 8, !tbaa !31
  %.pre15 = load i64, ptr %5, align 8, !tbaa !28
  %.pre16 = add i64 %.pre15, 1
  br label %20

20:                                               ; preds = %._crit_edge, %14
  %.pre-phi = phi i64 [ %7, %._crit_edge ], [ %.pre16, %14 ]
  %21 = phi i64 [ %6, %._crit_edge ], [ %.pre15, %14 ]
  %22 = phi ptr [ %.pre, %._crit_edge ], [ %19, %14 ]
  %23 = trunc i32 %1 to i8
  store i64 %.pre-phi, ptr %5, align 8, !tbaa !28
  %24 = getelementptr inbounds nuw i8, ptr %22, i64 %21
  store i8 %23, ptr %24, align 1, !tbaa !13
  ret void
}